target datalayout = "e-m:e-p270:32:32-p271:32:32-p272:64:64-i64:64-i128:128-f80:128-n8:16:32:64-S128"
target triple = "x86_64-pc-linux-gnu"

%struct.FunctionCallInfoBaseData = type { ptr, ptr, ptr, i32, i8, i16, [0 x %struct.NullableDatum] }
%struct.NullableDatum = type { i64, i8 }
%struct.TimeTzADT = type { i64, i32 }

; Function Attrs: inlinehint nounwind uwtable
define internal ptr @DatumGetPointer(i64 noundef %0) #4 {
  %2 = alloca i64, align 8
  store i64 %0, ptr %2, align 8
  %3 = load i64, ptr %2, align 8
  %4 = inttoptr i64 %3 to ptr
  ret ptr %4
}

; Function Attrs: inlinehint nounwind uwtable
define internal i64 @BoolGetDatum(i1 noundef zeroext %0) #4 {
  %2 = alloca i8, align 1
  %3 = zext i1 %0 to i8
  store i8 %3, ptr %2, align 1
  %4 = load i8, ptr %2, align 1, !range !4, !noundef !5
  %5 = trunc i8 %4 to i1
  %6 = select i1 %5, i32 1, i32 0
  %7 = sext i32 %6 to i64
  ret i64 %7
}

; Function Attrs: nounwind uwtable
define internal i32 @timetz_cmp_internal(ptr noundef %0, ptr noundef %1) #0 {
  %3 = alloca i32, align 4
  %4 = alloca ptr, align 8
  %5 = alloca ptr, align 8
  %6 = alloca i64, align 8
  %7 = alloca i64, align 8
  %8 = alloca i32, align 4
  store ptr %0, ptr %4, align 8
  store ptr %1, ptr %5, align 8
  call void @llvm.lifetime.start.p0(i64 8, ptr %6) #9
  call void @llvm.lifetime.start.p0(i64 8, ptr %7) #9
  %9 = load ptr, ptr %4, align 8
  %10 = getelementptr inbounds nuw %struct.TimeTzADT, ptr %9, i32 0, i32 0
  %11 = load i64, ptr %10, align 8
  %12 = load ptr, ptr %4, align 8
  %13 = getelementptr inbounds nuw %struct.TimeTzADT, ptr %12, i32 0, i32 1
  %14 = load i32, ptr %13, align 8
  %15 = sext i32 %14 to i64
  %16 = mul i64 %15, 1000000
  %17 = add i64 %11, %16
  store i64 %17, ptr %6, align 8
  %18 = load ptr, ptr %5, align 8
  %19 = getelementptr inbounds nuw %struct.TimeTzADT, ptr %18, i32 0, i32 0
  %20 = load i64, ptr %19, align 8
  %21 = load ptr, ptr %5, align 8
  %22 = getelementptr inbounds nuw %struct.TimeTzADT, ptr %21, i32 0, i32 1
  %23 = load i32, ptr %22, align 8
  %24 = sext i32 %23 to i64
  %25 = mul i64 %24, 1000000
  %26 = add i64 %20, %25
  store i64 %26, ptr %7, align 8
  %27 = load i64, ptr %6, align 8
  %28 = load i64, ptr %7, align 8
  %29 = icmp sgt i64 %27, %28
  br i1 %29, label %30, label %31

30:                                               ; preds = %2
  store i32 1, ptr %3, align 4
  store i32 1, ptr %8, align 4
  br label %55

31:                                               ; preds = %2
  %32 = load i64, ptr %6, align 8
  %33 = load i64, ptr %7, align 8
  %34 = icmp slt i64 %32, %33
  br i1 %34, label %35, label %36

35:                                               ; preds = %31
  store i32 -1, ptr %3, align 4
  store i32 1, ptr %8, align 4
  br label %55

36:                                               ; preds = %31
  %37 = load ptr, ptr %4, align 8
  %38 = getelementptr inbounds nuw %struct.TimeTzADT, ptr %37, i32 0, i32 1
  %39 = load i32, ptr %38, align 8
  %40 = load ptr, ptr %5, align 8
  %41 = getelementptr inbounds nuw %struct.TimeTzADT, ptr %40, i32 0, i32 1
  %42 = load i32, ptr %41, align 8
  %43 = icmp sgt i32 %39, %42
  br i1 %43, label %44, label %45

44:                                               ; preds = %36
  store i32 1, ptr %3, align 4
  store i32 1, ptr %8, align 4
  br label %55

45:                                               ; preds = %36
  %46 = load ptr, ptr %4, align 8
  %47 = getelementptr inbounds nuw %struct.TimeTzADT, ptr %46, i32 0, i32 1
  %48 = load i32, ptr %47, align 8
  %49 = load ptr, ptr %5, align 8
  %50 = getelementptr inbounds nuw %struct.TimeTzADT, ptr %49, i32 0, i32 1
  %51 = load i32, ptr %50, align 8
  %52 = icmp slt i32 %48, %51
  br i1 %52, label %53, label %54

53:                                               ; preds = %45
  store i32 -1, ptr %3, align 4
  store i32 1, ptr %8, align 4
  br label %55

54:                                               ; preds = %45
  store i32 0, ptr %3, align 4
  store i32 1, ptr %8, align 4
  br label %55

55:                                               ; preds = %54, %53, %44, %35, %30
  call void @llvm.lifetime.end.p0(i64 8, ptr %7) #9
  call void @llvm.lifetime.end.p0(i64 8, ptr %6) #9
  %56 = load i32, ptr %3, align 4
  ret i32 %56
}

; Function Attrs: inlinehint nounwind uwtable
define internal ptr @DatumGetTimeTzADTP(i64 noundef %0) #4 {
  %2 = alloca i64, align 8
  store i64 %0, ptr %2, align 8
  %3 = load i64, ptr %2, align 8
  %4 = call ptr @DatumGetPointer(i64 noundef %3)
  ret ptr %4
}

; Function Attrs: nounwind uwtable
define dso_local i64 @timetz_ge(ptr noundef %0) #0 {
  %2 = alloca ptr, align 8
  %3 = alloca ptr, align 8
  %4 = alloca ptr, align 8
  store ptr %0, ptr %2, align 8
  call void @llvm.lifetime.start.p0(i64 8, ptr %3) #9
  %5 = load ptr, ptr %2, align 8
  %6 = getelementptr inbounds nuw %struct.FunctionCallInfoBaseData, ptr %5, i32 0, i32 6
  %7 = getelementptr inbounds [0 x %struct.NullableDatum], ptr %6, i64 0, i64 0
  %8 = getelementptr inbounds nuw %struct.NullableDatum, ptr %7, i32 0, i32 0
  %9 = load i64, ptr %8, align 8
  %10 = call ptr @DatumGetTimeTzADTP(i64 noundef %9)
  store ptr %10, ptr %3, align 8
  call void @llvm.lifetime.start.p0(i64 8, ptr %4) #9
  %11 = load ptr, ptr %2, align 8
  %12 = getelementptr inbounds nuw %struct.FunctionCallInfoBaseData, ptr %11, i32 0, i32 6
  %13 = getelementptr inbounds [0 x %struct.NullableDatum], ptr %12, i64 0, i64 1
  %14 = getelementptr inbounds nuw %struct.NullableDatum, ptr %13, i32 0, i32 0
  %15 = load i64, ptr %14, align 8
  %16 = call ptr @DatumGetTimeTzADTP(i64 noundef %15)
  store ptr %16, ptr %4, align 8
  %17 = load ptr, ptr %3, align 8
  %18 = load ptr, ptr %4, align 8
  %19 = call i32 @timetz_cmp_internal(ptr noundef %17, ptr noundef %18)
  %20 = icmp sge i32 %19, 0
  %21 = call i64 @BoolGetDatum(i1 noundef zeroext %20)
  call void @llvm.lifetime.end.p0(i64 8, ptr %4) #9
  call void @llvm.lifetime.end.p0(i64 8, ptr %3) #9
  ret i64 %21
}