; Function Attrs: mustprogress nofree norecurse nosync nounwind willreturn memory(read, inaccessiblemem: none) uwtable
define dso_local range(i64 0, 2) i64 @timetz_ge(ptr noundef readonly captures(none) %0) local_unnamed_addr #10 {
  %2 = getelementptr inbounds nuw i8, ptr %0, i64 32
  %3 = load i64, ptr %2, align 8
  %4 = inttoptr i64 %3 to ptr
  %5 = getelementptr inbounds nuw i8, ptr %0, i64 48
  %6 = load i64, ptr %5, align 8
  %7 = inttoptr i64 %6 to ptr
  %.val = load i64, ptr %4, align 8
  %8 = getelementptr i8, ptr %4, i64 8
  %.val4 = load i32, ptr %8, align 8
  %.val5 = load i64, ptr %7, align 8
  %9 = getelementptr i8, ptr %7, i64 8
  %.val6 = load i32, ptr %9, align 8
  %10 = sext i32 %.val4 to i64
  %11 = mul nsw i64 %10, 1000000
  %12 = add i64 %11, %.val
  %13 = sext i32 %.val6 to i64
  %14 = mul nsw i64 %13, 1000000
  %15 = add i64 %14, %.val5
  %16 = icmp sgt i64 %12, %15
  br i1 %16, label %timetz_cmp_internal.exit, label %17

17:                                               ; preds = %1
  %18 = icmp slt i64 %12, %15
  br i1 %18, label %timetz_cmp_internal.exit, label %19

19:                                               ; preds = %17
  %20 = icmp sgt i32 %.val4, %.val6
  br i1 %20, label %timetz_cmp_internal.exit, label %21

21:                                               ; preds = %19
  %22 = icmp sge i32 %.val4, %.val6
  %23 = zext i1 %22 to i64
  br label %timetz_cmp_internal.exit

timetz_cmp_internal.exit:                         ; preds = %1, %17, %19, %21
  %.0.i = phi i64 [ 1, %1 ], [ 0, %17 ], [ 1, %19 ], [ %23, %21 ]
  ret i64 %.0.i
}